target datalayout = "e-m:e-p270:32:32-p271:32:32-p272:64:64-i64:64-i128:128-f80:128-n8:16:32:64-S128"
target triple = "x86_64-pc-linux-gnu"

%struct.pmix_class_t = type { ptr, ptr, ptr, ptr, i32, i32, ptr, ptr, i64 }
%union.pthread_mutex_t = type { %struct.__pthread_mutex_s }
%struct.__pthread_mutex_s = type { i32, i32, i32, i32, i32, i16, i16, %struct.__pthread_internal_list }
%struct.__pthread_internal_list = type { ptr, ptr }
%struct.pmix_tma = type { ptr, ptr, ptr, ptr, ptr, ptr, ptr, ptr }
%struct.pmix_object_t = type { %union.pthread_mutex_t, ptr, i32, %struct.pmix_tma }

@.str.58 = private unnamed_addr constant [21 x i8] c"pthread_mutex_lock()\00", align 1

; Function Attrs: inlinehint nounwind uwtable
define internal void @pmix_tma_free(ptr noundef %0, ptr noundef %1) #2 {
  %3 = alloca ptr, align 8
  %4 = alloca ptr, align 8
  store ptr %0, ptr %3, align 8, !tbaa !178
  store ptr %1, ptr %4, align 8, !tbaa !76
  %5 = load ptr, ptr %3, align 8, !tbaa !178
  %6 = icmp ne ptr null, %5
  br i1 %6, label %7, label %13

7:                                                ; preds = %2
  %8 = load ptr, ptr %3, align 8, !tbaa !178
  %9 = getelementptr inbounds nuw %struct.pmix_tma, ptr %8, i32 0, i32 5
  %10 = load ptr, ptr %9, align 8, !tbaa !205
  %11 = load ptr, ptr %3, align 8, !tbaa !178
  %12 = load ptr, ptr %4, align 8, !tbaa !76
  call void %10(ptr noundef %11, ptr noundef %12)
  br label %15

13:                                               ; preds = %2
  %14 = load ptr, ptr %4, align 8, !tbaa !76
  call void @free(ptr noundef %14) #12
  br label %15

15:                                               ; preds = %13, %7
  ret void
}

; Function Attrs: inlinehint nounwind uwtable
define internal void @pmix_obj_run_destructors(ptr noundef %0) #2 {
  %2 = alloca ptr, align 8
  %3 = alloca ptr, align 8
  store ptr %0, ptr %2, align 8, !tbaa !101
  call void @llvm.lifetime.start.p0(i64 8, ptr %3) #12
  %4 = load ptr, ptr %2, align 8, !tbaa !101
  %5 = getelementptr inbounds nuw %struct.pmix_object_t, ptr %4, i32 0, i32 1
  %6 = load ptr, ptr %5, align 8, !tbaa !87
  %7 = getelementptr inbounds nuw %struct.pmix_class_t, ptr %6, i32 0, i32 7
  %8 = load ptr, ptr %7, align 8, !tbaa !203
  store ptr %8, ptr %3, align 8, !tbaa !76
  br label %9

9:                                                ; preds = %13, %1
  %10 = load ptr, ptr %3, align 8, !tbaa !76
  %11 = load ptr, ptr %10, align 8, !tbaa !76
  %12 = icmp ne ptr null, %11
  br i1 %12, label %13, label %19

13:                                               ; preds = %9
  %14 = load ptr, ptr %3, align 8, !tbaa !76
  %15 = load ptr, ptr %14, align 8, !tbaa !76
  %16 = load ptr, ptr %2, align 8, !tbaa !101
  call void %15(ptr noundef %16)
  %17 = load ptr, ptr %3, align 8, !tbaa !76
  %18 = getelementptr inbounds nuw ptr, ptr %17, i32 1
  store ptr %18, ptr %3, align 8, !tbaa !76
  br label %9, !llvm.loop !204

19:                                               ; preds = %9
  call void @llvm.lifetime.end.p0(i64 8, ptr %3) #12
  ret void
}

; Function Attrs: alwaysinline nounwind uwtable
define internal i32 @pmix_obj_update(ptr noundef %0, i32 noundef %1) #6 {
  %3 = alloca ptr, align 8
  %4 = alloca i32, align 4
  %5 = alloca i32, align 4
  store ptr %0, ptr %3, align 8, !tbaa !101
  store i32 %1, ptr %4, align 4, !tbaa !12
  call void @llvm.lifetime.start.p0(i64 4, ptr %5) #12
  %6 = load ptr, ptr %3, align 8, !tbaa !101
  %7 = getelementptr inbounds nuw %struct.pmix_object_t, ptr %6, i32 0, i32 0
  %8 = call i32 @pthread_mutex_lock(ptr noundef %7) #12
  store i32 %8, ptr %5, align 4, !tbaa !12
  %9 = load i32, ptr %5, align 4, !tbaa !12
  %10 = icmp eq i32 %9, 35
  br i1 %10, label %11, label %14

11:                                               ; preds = %2
  %12 = load i32, ptr %5, align 4, !tbaa !12
  %13 = call ptr @__errno_location() #15
  store i32 %12, ptr %13, align 4, !tbaa !12
  call void @perror(ptr noundef @.str.58)
  call void @abort() #16
  unreachable

14:                                               ; preds = %2
  %15 = load i32, ptr %4, align 4, !tbaa !12
  %16 = load ptr, ptr %3, align 8, !tbaa !101
  %17 = getelementptr inbounds nuw %struct.pmix_object_t, ptr %16, i32 0, i32 2
  %18 = load i32, ptr %17, align 8, !tbaa !88
  %19 = add nsw i32 %18, %15
  store i32 %19, ptr %17, align 8, !tbaa !88
  store i32 %19, ptr %5, align 4, !tbaa !12
  %20 = load ptr, ptr %3, align 8, !tbaa !101
  %21 = getelementptr inbounds nuw %struct.pmix_object_t, ptr %20, i32 0, i32 0
  %22 = call i32 @pthread_mutex_unlock(ptr noundef %21) #12
  %23 = load i32, ptr %5, align 4, !tbaa !12
  call void @llvm.lifetime.end.p0(i64 4, ptr %5) #12
  ret i32 %23
}

; Function Attrs: inlinehint nounwind uwtable
define internal void @pmix_atomic_rmb() #2 {
  fence acquire
  ret void
}

; Function Attrs: nounwind uwtable
define internal void @_notify_complete(i32 noundef %0, ptr noundef %1) #0 {
  %3 = alloca i32, align 4
  %4 = alloca ptr, align 8
  %5 = alloca ptr, align 8
  %6 = alloca ptr, align 8
  store i32 %0, ptr %3, align 4, !tbaa !12
  store ptr %1, ptr %4, align 8, !tbaa !76
  call void @llvm.lifetime.start.p0(i64 8, ptr %5) #12
  %7 = load ptr, ptr %4, align 8, !tbaa !76
  store ptr %7, ptr %5, align 8, !tbaa !167
  call void @pmix_atomic_rmb()
  br label %8

8:                                                ; preds = %2
  call void @llvm.lifetime.start.p0(i64 8, ptr %6) #12
  %9 = load ptr, ptr %5, align 8, !tbaa !167
  store ptr %9, ptr %6, align 8, !tbaa !101
  %10 = load ptr, ptr %6, align 8, !tbaa !101
  %11 = call i32 @pmix_obj_update(ptr noundef %10, i32 noundef -1)
  %12 = icmp eq i32 0, %11
  br i1 %12, label %13, label %27

13:                                               ; preds = %8
  %14 = load ptr, ptr %6, align 8, !tbaa !101
  call void @pmix_obj_run_destructors(ptr noundef %14)
  %15 = load ptr, ptr %6, align 8, !tbaa !101
  %16 = getelementptr inbounds nuw %struct.pmix_object_t, ptr %15, i32 0, i32 3
  %17 = getelementptr inbounds nuw %struct.pmix_tma, ptr %16, i32 0, i32 5
  %18 = load ptr, ptr %17, align 8, !tbaa !103
  %19 = icmp ne ptr null, %18
  br i1 %19, label %20, label %24

20:                                               ; preds = %13
  %21 = load ptr, ptr %6, align 8, !tbaa !101
  %22 = getelementptr inbounds nuw %struct.pmix_object_t, ptr %21, i32 0, i32 3
  %23 = load ptr, ptr %5, align 8, !tbaa !167
  call void @pmix_tma_free(ptr noundef %22, ptr noundef %23)
  br label %26

24:                                               ; preds = %13
  %25 = load ptr, ptr %5, align 8, !tbaa !167
  call void @free(ptr noundef %25) #12
  br label %26

26:                                               ; preds = %24, %20
  store ptr null, ptr %5, align 8, !tbaa !167
  br label %27

27:                                               ; preds = %26, %8
  call void @llvm.lifetime.end.p0(i64 8, ptr %6) #12
  br label %28

28:                                               ; preds = %27
  br label %29

29:                                               ; preds = %28
  call void @llvm.lifetime.end.p0(i64 8, ptr %5) #12
  ret void
}