; Function Attrs: nounwind uwtable
define internal void @_notify_complete(i32 %0, ptr noundef %1) #1 {
  fence acquire
  %3 = tail call i32 @pthread_mutex_lock(ptr noundef %1) #18
  %4 = icmp eq i32 %3, 35
  br i1 %4, label %5, label %pmix_obj_update.exit

5:                                                ; preds = %2
  %6 = tail call ptr @__errno_location() #22
  store i32 35, ptr %6, align 4, !tbaa !64
  tail call void @perror(ptr noundef nonnull @.str.58) #20
  tail call void @abort() #23
  unreachable

pmix_obj_update.exit:                             ; preds = %2
  %7 = getelementptr inbounds nuw i8, ptr %1, i64 48
  %8 = load i32, ptr %7, align 8, !tbaa !75
  %9 = add nsw i32 %8, -1
  store i32 %9, ptr %7, align 8, !tbaa !75
  %10 = tail call i32 @pthread_mutex_unlock(ptr noundef %1) #18
  %11 = icmp eq i32 %9, 0
  br i1 %11, label %12, label %26

12:                                               ; preds = %pmix_obj_update.exit
  %13 = getelementptr inbounds nuw i8, ptr %1, i64 40
  %14 = load ptr, ptr %13, align 8, !tbaa !74
  %15 = getelementptr inbounds nuw i8, ptr %14, i64 48
  %16 = load ptr, ptr %15, align 8, !tbaa !104
  %17 = load ptr, ptr %16, align 8, !tbaa !77
  %.not6.i = icmp eq ptr %17, null
  br i1 %.not6.i, label %pmix_obj_run_destructors.exit, label %.lr.ph.i

.lr.ph.i:                                         ; preds = %12, %.lr.ph.i
  %18 = phi ptr [ %20, %.lr.ph.i ], [ %17, %12 ]
  %.07.i = phi ptr [ %19, %.lr.ph.i ], [ %16, %12 ]
  tail call void %18(ptr noundef %1) #18
  %19 = getelementptr inbounds nuw i8, ptr %.07.i, i64 8
  %20 = load ptr, ptr %19, align 8, !tbaa !77
  %.not.i = icmp eq ptr %20, null
  br i1 %.not.i, label %pmix_obj_run_destructors.exit, label %.lr.ph.i, !llvm.loop !105

pmix_obj_run_destructors.exit:                    ; preds = %.lr.ph.i, %12
  %21 = getelementptr inbounds nuw i8, ptr %1, i64 96
  %22 = load ptr, ptr %21, align 8, !tbaa !106
  %.not = icmp eq ptr %22, null
  br i1 %.not, label %25, label %23

23:                                               ; preds = %pmix_obj_run_destructors.exit
  %24 = getelementptr inbounds nuw i8, ptr %1, i64 56
  tail call void %22(ptr noundef nonnull %24, ptr noundef nonnull %1) #18
  br label %26

25:                                               ; preds = %pmix_obj_run_destructors.exit
  tail call void @free(ptr noundef nonnull %1) #18
  br label %26

26:                                               ; preds = %23, %25, %pmix_obj_update.exit
  ret void
}